target datalayout = "e-m:e-p270:32:32-p271:32:32-p272:64:64-i64:64-i128:128-f80:128-n8:16:32:64-S128"
target triple = "x86_64-unknown-linux-gnu"

%"class.google::protobuf::MessageLite" = type { ptr, %"class.google::protobuf::internal::InternalMetadata" }
%"class.google::protobuf::internal::InternalMetadata" = type { i64 }
%"struct.google::protobuf::internal::InternalMetadata::Container" = type { %"struct.google::protobuf::internal::InternalMetadata::ContainerBase", %"class.google::protobuf::UnknownFieldSet" }
%"struct.google::protobuf::internal::InternalMetadata::ContainerBase" = type { ptr }
%"class.google::protobuf::UnknownFieldSet" = type { %"class.std::vector" }
%"class.std::vector" = type { %"struct.std::_Vector_base" }
%"struct.std::_Vector_base" = type { %"struct.std::_Vector_base<google::protobuf::UnknownField, std::allocator<google::protobuf::UnknownField>>::_Vector_impl" }
%"struct.std::_Vector_base<google::protobuf::UnknownField, std::allocator<google::protobuf::UnknownField>>::_Vector_impl" = type { %"struct.std::_Vector_base<google::protobuf::UnknownField, std::allocator<google::protobuf::UnknownField>>::_Vector_impl_data" }
%"struct.std::_Vector_base<google::protobuf::UnknownField, std::allocator<google::protobuf::UnknownField>>::_Vector_impl_data" = type { ptr, ptr, ptr }

; Function Attrs: mustprogress nounwind uwtable
define linkonce_odr hidden noundef ptr @_ZNK6google8protobuf8internal16InternalMetadata8PtrValueINS2_9ContainerINS0_15UnknownFieldSetEEEEEPT_v(ptr noundef nonnull align 8 dereferenceable(8) %this) #5 comdat align 2 {
entry:
  %this.addr = alloca ptr, align 8
  store ptr %this, ptr %this.addr, align 8
  %this1 = load ptr, ptr %this.addr, align 8
  %ptr_ = getelementptr inbounds %"class.google::protobuf::internal::InternalMetadata", ptr %this1, i32 0, i32 0
  %0 = load i64, ptr %ptr_, align 8
  %and = and i64 %0, -2
  %1 = inttoptr i64 %and to ptr
  ret ptr %1
}

; Function Attrs: mustprogress uwtable
define void @_ZN6google8protobuf8internal14ZeroFieldsBase12InternalSwapEPS2_(ptr noundef nonnull align 8 dereferenceable(20) %this, ptr noundef %other) #4 align 2 {
entry:
  %this.addr.i9 = alloca ptr, align 8
  %this.addr.i5 = alloca ptr, align 8
  %this.addr.i3 = alloca ptr, align 8
  %this.addr.i9.i = alloca ptr, align 8
  %this.addr.i7.i = alloca ptr, align 8
  %this.addr.i4.i = alloca ptr, align 8
  %retval.i.i = alloca ptr, align 8
  %this.addr.i.i = alloca ptr, align 8
  %this.addr.i = alloca ptr, align 8
  %other.addr.i = alloca ptr, align 8
  %this.addr = alloca ptr, align 8
  %other.addr = alloca ptr, align 8
  store ptr %this, ptr %this.addr, align 8
  store ptr %other, ptr %other.addr, align 8
  %this1 = load ptr, ptr %this.addr, align 8
  %_internal_metadata_ = getelementptr inbounds %"class.google::protobuf::MessageLite", ptr %this1, i32 0, i32 1
  %0 = load ptr, ptr %other.addr, align 8
  %_internal_metadata_2 = getelementptr inbounds %"class.google::protobuf::MessageLite", ptr %0, i32 0, i32 1
  store ptr %_internal_metadata_, ptr %this.addr.i, align 8
  store ptr %_internal_metadata_2, ptr %other.addr.i, align 8
  %this1.i = load ptr, ptr %this.addr.i, align 8
  store ptr %this1.i, ptr %this.addr.i9.i, align 8
  %this1.i10.i = load ptr, ptr %this.addr.i9.i, align 8
  store ptr %this1.i10.i, ptr %this.addr.i9, align 8
  %this1.i10 = load ptr, ptr %this.addr.i9, align 8
  %1 = load i64, ptr %this1.i10, align 8
  %and.i11 = and i64 %1, 1
  %tobool.i12 = icmp ne i64 %and.i11, 0
  br i1 %tobool.i12, label %if.then.i, label %lor.lhs.false.i

lor.lhs.false.i:                                  ; preds = %entry
  %2 = load ptr, ptr %other.addr.i, align 8
  store ptr %2, ptr %this.addr.i7.i, align 8
  %this1.i8.i = load ptr, ptr %this.addr.i7.i, align 8
  store ptr %this1.i8.i, ptr %this.addr.i5, align 8
  %this1.i6 = load ptr, ptr %this.addr.i5, align 8
  %3 = load i64, ptr %this1.i6, align 8
  %and.i7 = and i64 %3, 1
  %tobool.i8 = icmp ne i64 %and.i7, 0
  br i1 %tobool.i8, label %if.then.i, label %_ZN6google8protobuf8internal16InternalMetadata4SwapINS0_15UnknownFieldSetEEEvPS2_.exit

if.then.i:                                        ; preds = %lor.lhs.false.i, %entry
  %4 = load ptr, ptr %other.addr.i, align 8
  store ptr %4, ptr %this.addr.i.i, align 8
  %this1.i.i = load ptr, ptr %this.addr.i.i, align 8
  store ptr %this1.i.i, ptr %this.addr.i4.i, align 8
  %this1.i5.i = load ptr, ptr %this.addr.i4.i, align 8
  store ptr %this1.i5.i, ptr %this.addr.i3, align 8
  %this1.i4 = load ptr, ptr %this.addr.i3, align 8
  %5 = load i64, ptr %this1.i4, align 8
  %and.i = and i64 %5, 1
  %tobool.i = icmp ne i64 %and.i, 0
  br i1 %tobool.i, label %if.then.i.i, label %if.else.i.i

if.then.i.i:                                      ; preds = %if.then.i
  %call2.i.i = call noundef ptr @_ZNK6google8protobuf8internal16InternalMetadata8PtrValueINS2_9ContainerINS0_15UnknownFieldSetEEEEEPT_v(ptr noundef nonnull align 8 dereferenceable(8) %this1.i.i)
  %unknown_fields.i.i = getelementptr inbounds %"struct.google::protobuf::internal::InternalMetadata::Container", ptr %call2.i.i, i32 0, i32 1
  store ptr %unknown_fields.i.i, ptr %retval.i.i, align 8
  br label %_ZN6google8protobuf8internal16InternalMetadata22mutable_unknown_fieldsINS0_15UnknownFieldSetEEEPT_v.exit.i

if.else.i.i:                                      ; preds = %if.then.i
  %call3.i.i = call noundef ptr @_ZN6google8protobuf8internal16InternalMetadata27mutable_unknown_fields_slowINS0_15UnknownFieldSetEEEPT_v(ptr noundef nonnull align 8 dereferenceable(8) %this1.i.i)
  store ptr %call3.i.i, ptr %retval.i.i, align 8
  br label %_ZN6google8protobuf8internal16InternalMetadata22mutable_unknown_fieldsINS0_15UnknownFieldSetEEEPT_v.exit.i

_ZN6google8protobuf8internal16InternalMetadata22mutable_unknown_fieldsINS0_15UnknownFieldSetEEEPT_v.exit.i: ; preds = %if.else.i.i, %if.then.i.i
  %6 = load ptr, ptr %retval.i.i, align 8
  call void @_ZN6google8protobuf8internal16InternalMetadata6DoSwapINS0_15UnknownFieldSetEEEvPT_(ptr noundef nonnull align 8 dereferenceable(8) %this1.i, ptr noundef %6)
  br label %_ZN6google8protobuf8internal16InternalMetadata4SwapINS0_15UnknownFieldSetEEEvPS2_.exit

_ZN6google8protobuf8internal16InternalMetadata4SwapINS0_15UnknownFieldSetEEEvPS2_.exit: ; preds = %_ZN6google8protobuf8internal16InternalMetadata22mutable_unknown_fieldsINS0_15UnknownFieldSetEEEPT_v.exit.i, %lor.lhs.false.i
  ret void
}