; Function Attrs: mustprogress uwtable
define void @_ZN6google8protobuf8internal14ZeroFieldsBase12InternalSwapEPS2_(ptr noundef nonnull align 8 dereferenceable(20) %this, ptr noundef %other) local_unnamed_addr #3 align 2 {
entry:
  %_internal_metadata_ = getelementptr inbounds i8, ptr %this, i64 8
  %_internal_metadata_2 = getelementptr inbounds i8, ptr %other, i64 8
  %0 = load i64, ptr %_internal_metadata_, align 8
  %and.i11 = and i64 %0, 1
  %tobool.i12.not = icmp eq i64 %and.i11, 0
  %.pre = load i64, ptr %_internal_metadata_2, align 8
  %and.i7 = and i64 %.pre, 1
  %tobool.i8.not = icmp eq i64 %and.i7, 0
  br i1 %tobool.i12.not, label %lor.lhs.false.i, label %if.then.i

lor.lhs.false.i:                                  ; preds = %entry
  br i1 %tobool.i8.not, label %_ZN6google8protobuf8internal16InternalMetadata4SwapINS0_15UnknownFieldSetEEEvPS2_.exit, label %if.then.i.i

if.then.i:                                        ; preds = %entry
  br i1 %tobool.i8.not, label %if.else.i.i, label %if.then.i.i

if.then.i.i:                                      ; preds = %lor.lhs.false.i, %if.then.i
  %and.i2 = and i64 %.pre, -2
  %1 = inttoptr i64 %and.i2 to ptr
  %unknown_fields.i.i = getelementptr inbounds i8, ptr %1, i64 8
  br label %_ZN6google8protobuf8internal16InternalMetadata22mutable_unknown_fieldsINS0_15UnknownFieldSetEEEPT_v.exit.i

if.else.i.i:                                      ; preds = %if.then.i
  %call3.i.i = tail call noundef ptr @_ZN6google8protobuf8internal16InternalMetadata27mutable_unknown_fields_slowINS0_15UnknownFieldSetEEEPT_v(ptr noundef nonnull align 8 dereferenceable(8) %_internal_metadata_2)
  br label %_ZN6google8protobuf8internal16InternalMetadata22mutable_unknown_fieldsINS0_15UnknownFieldSetEEEPT_v.exit.i

_ZN6google8protobuf8internal16InternalMetadata22mutable_unknown_fieldsINS0_15UnknownFieldSetEEEPT_v.exit.i: ; preds = %if.else.i.i, %if.then.i.i
  %retval.i.i.0 = phi ptr [ %unknown_fields.i.i, %if.then.i.i ], [ %call3.i.i, %if.else.i.i ]
  tail call void @_ZN6google8protobuf8internal16InternalMetadata6DoSwapINS0_15UnknownFieldSetEEEvPT_(ptr noundef nonnull align 8 dereferenceable(8) %_internal_metadata_, ptr noundef %retval.i.i.0)
  br label %_ZN6google8protobuf8internal16InternalMetadata4SwapINS0_15UnknownFieldSetEEEvPS2_.exit

_ZN6google8protobuf8internal16InternalMetadata4SwapINS0_15UnknownFieldSetEEEvPS2_.exit: ; preds = %_ZN6google8protobuf8internal16InternalMetadata22mutable_unknown_fieldsINS0_15UnknownFieldSetEEEPT_v.exit.i, %lor.lhs.false.i
  ret void
}